target datalayout = "e-m:e-p270:32:32-p271:32:32-p272:64:64-i64:64-i128:128-f80:128-n8:16:32:64-S128"
target triple = "x86_64-pc-linux-gnu"

%struct.Agobj_s = type { %struct.Agtag_s, ptr }
%struct.Agtag_s = type { i32, i64 }

; Function Attrs: nounwind uwtable
define i32 @agxset(ptr noundef %0, ptr noundef %1, ptr noundef %2) #0 {
  %4 = alloca ptr, align 8
  %5 = alloca ptr, align 8
  %6 = alloca ptr, align 8
  store ptr %0, ptr %4, align 8, !tbaa !3
  store ptr %1, ptr %5, align 8, !tbaa !7
  store ptr %2, ptr %6, align 8, !tbaa !31
  %7 = load ptr, ptr %4, align 8, !tbaa !3
  %8 = load ptr, ptr %5, align 8, !tbaa !7
  %9 = load ptr, ptr %6, align 8, !tbaa !31
  %10 = call i32 @agxset_(ptr noundef %7, ptr noundef %8, ptr noundef %9, i1 noundef zeroext false)
  ret i32 %10
}

; Function Attrs: nounwind uwtable
define ptr @agattr(ptr noundef %0, i32 noundef %1, ptr noundef %2, ptr noundef %3) #0 {
  %5 = alloca ptr, align 8
  %6 = alloca i32, align 4
  %7 = alloca ptr, align 8
  %8 = alloca ptr, align 8
  store ptr %0, ptr %5, align 8, !tbaa !9
  store i32 %1, ptr %6, align 4, !tbaa !45
  store ptr %2, ptr %7, align 8, !tbaa !31
  store ptr %3, ptr %8, align 8, !tbaa !31
  %9 = load ptr, ptr %5, align 8, !tbaa !9
  %10 = load i32, ptr %6, align 4, !tbaa !45
  %11 = load ptr, ptr %7, align 8, !tbaa !31
  %12 = load ptr, ptr %8, align 8, !tbaa !31
  %13 = call ptr @agattr_(ptr noundef %9, i32 noundef %10, ptr noundef %11, ptr noundef %12, i1 noundef zeroext false)
  ret ptr %13
}

; Function Attrs: nounwind uwtable
define i32 @agsafeset(ptr noundef %0, ptr noundef %1, ptr noundef %2, ptr noundef %3) #0 {
  %5 = alloca ptr, align 8
  %6 = alloca ptr, align 8
  %7 = alloca ptr, align 8
  %8 = alloca ptr, align 8
  %9 = alloca ptr, align 8
  store ptr %0, ptr %5, align 8, !tbaa !3
  store ptr %1, ptr %6, align 8, !tbaa !31
  store ptr %2, ptr %7, align 8, !tbaa !31
  store ptr %3, ptr %8, align 8, !tbaa !31
  call void @llvm.lifetime.start.p0(i64 8, ptr %9) #11
  %10 = load ptr, ptr %5, align 8, !tbaa !3
  %11 = call ptr @agraphof(ptr noundef %10)
  %12 = load ptr, ptr %5, align 8, !tbaa !3
  %13 = getelementptr inbounds nuw %struct.Agobj_s, ptr %12, i32 0, i32 0
  %14 = load i32, ptr %13, align 8
  %15 = and i32 %14, 3
  %16 = load ptr, ptr %6, align 8, !tbaa !31
  %17 = call ptr @agattr(ptr noundef %11, i32 noundef %15, ptr noundef %16, ptr noundef null)
  store ptr %17, ptr %9, align 8, !tbaa !7
  %18 = load ptr, ptr %9, align 8, !tbaa !7
  %19 = icmp ne ptr %18, null
  br i1 %19, label %30, label %20

20:                                               ; preds = %4
  %21 = load ptr, ptr %5, align 8, !tbaa !3
  %22 = call ptr @agraphof(ptr noundef %21)
  %23 = load ptr, ptr %5, align 8, !tbaa !3
  %24 = getelementptr inbounds nuw %struct.Agobj_s, ptr %23, i32 0, i32 0
  %25 = load i32, ptr %24, align 8
  %26 = and i32 %25, 3
  %27 = load ptr, ptr %6, align 8, !tbaa !31
  %28 = load ptr, ptr %8, align 8, !tbaa !31
  %29 = call ptr @agattr(ptr noundef %22, i32 noundef %26, ptr noundef %27, ptr noundef %28)
  store ptr %29, ptr %9, align 8, !tbaa !7
  br label %30

30:                                               ; preds = %20, %4
  %31 = load ptr, ptr %5, align 8, !tbaa !3
  %32 = load ptr, ptr %9, align 8, !tbaa !7
  %33 = load ptr, ptr %7, align 8, !tbaa !31
  %34 = call i32 @agxset(ptr noundef %31, ptr noundef %32, ptr noundef %33)
  call void @llvm.lifetime.end.p0(i64 8, ptr %9) #11
  ret i32 %34
}