; Function Attrs: nounwind uwtable
define noundef i32 @agsafeset(ptr noundef %0, ptr noundef %1, ptr noundef %2, ptr noundef %3) local_unnamed_addr #0 {
  %5 = alloca %struct.Agsym_s, align 8
  %6 = tail call ptr @agraphof(ptr noundef %0) #12
  %7 = load i32, ptr %0, align 8
  %8 = and i32 %7, 3
  %9 = icmp eq ptr %6, null
  br i1 %9, label %10, label %15

10:                                               ; preds = %4
  %11 = load ptr, ptr @ProtoGraph, align 8, !tbaa !3
  %12 = icmp eq ptr %11, null
  br i1 %12, label %13, label %15

13:                                               ; preds = %10
  %14 = tail call ptr @agopen(ptr noundef null, i32 21, ptr noundef null) #12
  store ptr %14, ptr @ProtoGraph, align 8, !tbaa !3
  br label %15

15:                                               ; preds = %13, %10, %4
  %.010.i = phi ptr [ %6, %4 ], [ %14, %13 ], [ %11, %10 ]
  %16 = tail call ptr @aggetrec(ptr noundef %.010.i, ptr noundef nonnull @DataDictName, i32 noundef 0) #12
  %.not.i.i.i13.i = icmp eq ptr %16, null
  br i1 %.not.i.i.i13.i, label %agattr_.exit.thread, label %switch.lookup

switch.lookup:                                    ; preds = %15
  %17 = zext nneg i32 %8 to i64
  %switch.gep = getelementptr inbounds nuw [4 x i64], ptr @switch.table.agcopyattr, i64 0, i64 %17
  %switch.load = load i64, ptr %switch.gep, align 8
  %18 = getelementptr inbounds nuw i8, ptr %16, i64 %switch.load
  %.0.i.i15.i = load ptr, ptr %18, align 8, !tbaa !34
  %.not.i16.i = icmp eq ptr %.0.i.i15.i, null
  br i1 %.not.i16.i, label %agattr_.exit.thread, label %agattr_.exit

agattr_.exit:                                     ; preds = %switch.lookup
  call void @llvm.lifetime.start.p0(i64 40, ptr nonnull %5) #12
  %19 = getelementptr inbounds nuw i8, ptr %5, i64 16
  store ptr %1, ptr %19, align 8, !tbaa !8
  %20 = load ptr, ptr %.0.i.i15.i, align 8, !tbaa !25
  %21 = call ptr %20(ptr noundef nonnull %.0.i.i15.i, ptr noundef nonnull %5, i32 noundef 4) #12
  call void @llvm.lifetime.end.p0(i64 40, ptr nonnull %5) #12
  %.not = icmp eq ptr %21, null
  br i1 %.not, label %agattr_.exit.thread, label %26

agattr_.exit.thread:                              ; preds = %15, %switch.lookup, %agattr_.exit
  %22 = call ptr @agraphof(ptr noundef nonnull %0) #12
  %23 = load i32, ptr %0, align 8
  %24 = and i32 %23, 3
  %25 = call fastcc ptr @agattr_(ptr noundef %22, i32 noundef %24, ptr noundef %1, ptr noundef %3, i1 noundef zeroext false)
  br label %26

26:                                               ; preds = %agattr_.exit.thread, %agattr_.exit
  %.0 = phi ptr [ %21, %agattr_.exit ], [ %25, %agattr_.exit.thread ]
  call fastcc void @agxset_(ptr noundef nonnull %0, ptr noundef %.0, ptr noundef %2, i1 noundef zeroext false)
  ret i32 0
}